; ModuleID = '27/2040.c'
source_filename = "27/2040.c"
target datalayout = "e-m:e-p270:32:32-p271:32:32-p272:64:64-i64:64-f80:128-n8:16:32:64-S128"
target triple = "x86_64-pc-linux-gnu"

@.str = private unnamed_addr constant [3 x i8] c"%d\00", align 1
@.str.1 = private unnamed_addr constant [10 x i8] c"%lf%lf%lf\00", align 1
@.str.2 = private unnamed_addr constant [13 x i8] c"x1=x2=%.5lf\0A\00", align 1
@.str.3 = private unnamed_addr constant [19 x i8] c"x1=%.5lf;x2=%.5lf\0A\00", align 1
@.str.4 = private unnamed_addr constant [17 x i8] c"x1=%.5lf+%.5lfi;\00", align 1
@.str.5 = private unnamed_addr constant [17 x i8] c"x2=%.5lf-%.5lfi\0A\00", align 1

; Function Attrs: noinline nounwind uwtable
define dso_local i32 @main() #0 {
  %1 = alloca i32, align 4
  %2 = alloca i32, align 4
  %3 = alloca i32, align 4
  %4 = alloca [100 x double], align 16
  %5 = alloca [100 x double], align 16
  %6 = alloca [100 x double], align 16
  %7 = alloca [100 x double], align 16
  %8 = alloca [100 x double], align 16
  %9 = alloca [100 x double], align 16
  %10 = alloca [100 x double], align 16
  %11 = alloca [100 x double], align 16
  store i32 0, i32* %1, align 4
  %12 = call i32 (i8*, ...) @__isoc99_scanf(i8* getelementptr inbounds ([3 x i8], [3 x i8]* @.str, i64 0, i64 0), i32* %2)
  store i32 0, i32* %3, align 4
  br label %13

13:                                               ; preds = %28, %0
  %14 = load i32, i32* %3, align 4
  %15 = load i32, i32* %2, align 4
  %16 = icmp slt i32 %14, %15
  br i1 %16, label %17, label %31

17:                                               ; preds = %13
  %18 = load i32, i32* %3, align 4
  %19 = sext i32 %18 to i64
  %20 = getelementptr inbounds [100 x double], [100 x double]* %4, i64 0, i64 %19
  %21 = load i32, i32* %3, align 4
  %22 = sext i32 %21 to i64
  %23 = getelementptr inbounds [100 x double], [100 x double]* %5, i64 0, i64 %22
  %24 = load i32, i32* %3, align 4
  %25 = sext i32 %24 to i64
  %26 = getelementptr inbounds [100 x double], [100 x double]* %6, i64 0, i64 %25
  %27 = call i32 (i8*, ...) @__isoc99_scanf(i8* getelementptr inbounds ([10 x i8], [10 x i8]* @.str.1, i64 0, i64 0), double* %20, double* %23, double* %26)
  br label %28

28:                                               ; preds = %17
  %29 = load i32, i32* %3, align 4
  %30 = add nsw i32 %29, 1
  store i32 %30, i32* %3, align 4
  br label %13

31:                                               ; preds = %13
  store i32 0, i32* %3, align 4
  br label %32

32:                                               ; preds = %195, %31
  %33 = load i32, i32* %3, align 4
  %34 = load i32, i32* %2, align 4
  %35 = icmp slt i32 %33, %34
  br i1 %35, label %36, label %198

36:                                               ; preds = %32
  %37 = load i32, i32* %3, align 4
  %38 = sext i32 %37 to i64
  %39 = getelementptr inbounds [100 x double], [100 x double]* %5, i64 0, i64 %38
  %40 = load double, double* %39, align 8
  %41 = load i32, i32* %3, align 4
  %42 = sext i32 %41 to i64
  %43 = getelementptr inbounds [100 x double], [100 x double]* %5, i64 0, i64 %42
  %44 = load double, double* %43, align 8
  %45 = fmul double %40, %44
  %46 = load i32, i32* %3, align 4
  %47 = sext i32 %46 to i64
  %48 = getelementptr inbounds [100 x double], [100 x double]* %4, i64 0, i64 %47
  %49 = load double, double* %48, align 8
  %50 = fmul double 4.000000e+00, %49
  %51 = load i32, i32* %3, align 4
  %52 = sext i32 %51 to i64
  %53 = getelementptr inbounds [100 x double], [100 x double]* %6, i64 0, i64 %52
  %54 = load double, double* %53, align 8
  %55 = fmul double %50, %54
  %56 = fsub double %45, %55
  %57 = load i32, i32* %3, align 4
  %58 = sext i32 %57 to i64
  %59 = getelementptr inbounds [100 x double], [100 x double]* %7, i64 0, i64 %58
  store double %56, double* %59, align 8
  %60 = load i32, i32* %3, align 4
  %61 = sext i32 %60 to i64
  %62 = getelementptr inbounds [100 x double], [100 x double]* %7, i64 0, i64 %61
  %63 = load double, double* %62, align 8
  %64 = call double @llvm.fabs.f64(double %63)
  %65 = fcmp ole double %64, 0x3EB0C6F7A0B5ED8D
  br i1 %65, label %66, label %79

66:                                               ; preds = %36
  %67 = load i32, i32* %3, align 4
  %68 = sext i32 %67 to i64
  %69 = getelementptr inbounds [100 x double], [100 x double]* %5, i64 0, i64 %68
  %70 = load double, double* %69, align 8
  %71 = fneg double %70
  %72 = load i32, i32* %3, align 4
  %73 = sext i32 %72 to i64
  %74 = getelementptr inbounds [100 x double], [100 x double]* %4, i64 0, i64 %73
  %75 = load double, double* %74, align 8
  %76 = fmul double 2.000000e+00, %75
  %77 = fdiv double %71, %76
  %78 = call i32 (i8*, ...) @printf(i8* getelementptr inbounds ([13 x i8], [13 x i8]* @.str.2, i64 0, i64 0), double %77)
  br label %194

79:                                               ; preds = %36
  %80 = load i32, i32* %3, align 4
  %81 = sext i32 %80 to i64
  %82 = getelementptr inbounds [100 x double], [100 x double]* %7, i64 0, i64 %81
  %83 = load double, double* %82, align 8
  %84 = fcmp ogt double %83, 0x3EB0C6F7A0B5ED8D
  br i1 %84, label %85, label %135

85:                                               ; preds = %79
  %86 = load i32, i32* %3, align 4
  %87 = sext i32 %86 to i64
  %88 = getelementptr inbounds [100 x double], [100 x double]* %5, i64 0, i64 %87
  %89 = load double, double* %88, align 8
  %90 = fneg double %89
  %91 = load i32, i32* %3, align 4
  %92 = sext i32 %91 to i64
  %93 = getelementptr inbounds [100 x double], [100 x double]* %7, i64 0, i64 %92
  %94 = load double, double* %93, align 8
  %95 = call double @sqrt(double %94) #4
  %96 = fadd double %90, %95
  %97 = load i32, i32* %3, align 4
  %98 = sext i32 %97 to i64
  %99 = getelementptr inbounds [100 x double], [100 x double]* %4, i64 0, i64 %98
  %100 = load double, double* %99, align 8
  %101 = fmul double 2.000000e+00, %100
  %102 = fdiv double %96, %101
  %103 = load i32, i32* %3, align 4
  %104 = sext i32 %103 to i64
  %105 = getelementptr inbounds [100 x double], [100 x double]* %8, i64 0, i64 %104
  store double %102, double* %105, align 8
  %106 = load i32, i32* %3, align 4
  %107 = sext i32 %106 to i64
  %108 = getelementptr inbounds [100 x double], [100 x double]* %5, i64 0, i64 %107
  %109 = load double, double* %108, align 8
  %110 = fneg double %109
  %111 = load i32, i32* %3, align 4
  %112 = sext i32 %111 to i64
  %113 = getelementptr inbounds [100 x double], [100 x double]* %7, i64 0, i64 %112
  %114 = load double, double* %113, align 8
  %115 = call double @sqrt(double %114) #4
  %116 = fsub double %110, %115
  %117 = load i32, i32* %3, align 4
  %118 = sext i32 %117 to i64
  %119 = getelementptr inbounds [100 x double], [100 x double]* %4, i64 0, i64 %118
  %120 = load double, double* %119, align 8
  %121 = fmul double 2.000000e+00, %120
  %122 = fdiv double %116, %121
  %123 = load i32, i32* %3, align 4
  %124 = sext i32 %123 to i64
  %125 = getelementptr inbounds [100 x double], [100 x double]* %9, i64 0, i64 %124
  store double %122, double* %125, align 8
  %126 = load i32, i32* %3, align 4
  %127 = sext i32 %126 to i64
  %128 = getelementptr inbounds [100 x double], [100 x double]* %8, i64 0, i64 %127
  %129 = load double, double* %128, align 8
  %130 = load i32, i32* %3, align 4
  %131 = sext i32 %130 to i64
  %132 = getelementptr inbounds [100 x double], [100 x double]* %9, i64 0, i64 %131
  %133 = load double, double* %132, align 8
  %134 = call i32 (i8*, ...) @printf(i8* getelementptr inbounds ([19 x i8], [19 x i8]* @.str.3, i64 0, i64 0), double %129, double %133)
  br label %193

135:                                              ; preds = %79
  %136 = load i32, i32* %3, align 4
  %137 = sext i32 %136 to i64
  %138 = getelementptr inbounds [100 x double], [100 x double]* %5, i64 0, i64 %137
  %139 = load double, double* %138, align 8
  %140 = fneg double %139
  %141 = load i32, i32* %3, align 4
  %142 = sext i32 %141 to i64
  %143 = getelementptr inbounds [100 x double], [100 x double]* %4, i64 0, i64 %142
  %144 = load double, double* %143, align 8
  %145 = fmul double 2.000000e+00, %144
  %146 = fdiv double %140, %145
  %147 = load i32, i32* %3, align 4
  %148 = sext i32 %147 to i64
  %149 = getelementptr inbounds [100 x double], [100 x double]* %10, i64 0, i64 %148
  store double %146, double* %149, align 8
  %150 = load i32, i32* %3, align 4
  %151 = sext i32 %150 to i64
  %152 = getelementptr inbounds [100 x double], [100 x double]* %7, i64 0, i64 %151
  %153 = load double, double* %152, align 8
  %154 = fneg double %153
  %155 = call double @sqrt(double %154) #4
  %156 = load i32, i32* %3, align 4
  %157 = sext i32 %156 to i64
  %158 = getelementptr inbounds [100 x double], [100 x double]* %4, i64 0, i64 %157
  %159 = load double, double* %158, align 8
  %160 = fmul double 2.000000e+00, %159
  %161 = fdiv double %155, %160
  %162 = load i32, i32* %3, align 4
  %163 = sext i32 %162 to i64
  %164 = getelementptr inbounds [100 x double], [100 x double]* %11, i64 0, i64 %163
  store double %161, double* %164, align 8
  %165 = load i32, i32* %3, align 4
  %166 = sext i32 %165 to i64
  %167 = getelementptr inbounds [100 x double], [100 x double]* %10, i64 0, i64 %166
  %168 = load double, double* %167, align 8
  %169 = fcmp oeq double %168, 0.000000e+00
  br i1 %169, label %170, label %174

170:                                              ; preds = %135
  %171 = load i32, i32* %3, align 4
  %172 = sext i32 %171 to i64
  %173 = getelementptr inbounds [100 x double], [100 x double]* %10, i64 0, i64 %172
  store double 0.000000e+00, double* %173, align 8
  br label %174

174:                                              ; preds = %170, %135
  %175 = load i32, i32* %3, align 4
  %176 = sext i32 %175 to i64
  %177 = getelementptr inbounds [100 x double], [100 x double]* %10, i64 0, i64 %176
  %178 = load double, double* %177, align 8
  %179 = load i32, i32* %3, align 4
  %180 = sext i32 %179 to i64
  %181 = getelementptr inbounds [100 x double], [100 x double]* %11, i64 0, i64 %180
  %182 = load double, double* %181, align 8
  %183 = call i32 (i8*, ...) @printf(i8* getelementptr inbounds ([17 x i8], [17 x i8]* @.str.4, i64 0, i64 0), double %178, double %182)
  %184 = load i32, i32* %3, align 4
  %185 = sext i32 %184 to i64
  %186 = getelementptr inbounds [100 x double], [100 x double]* %10, i64 0, i64 %185
  %187 = load double, double* %186, align 8
  %188 = load i32, i32* %3, align 4
  %189 = sext i32 %188 to i64
  %190 = getelementptr inbounds [100 x double], [100 x double]* %11, i64 0, i64 %189
  %191 = load double, double* %190, align 8
  %192 = call i32 (i8*, ...) @printf(i8* getelementptr inbounds ([17 x i8], [17 x i8]* @.str.5, i64 0, i64 0), double %187, double %191)
  br label %193

193:                                              ; preds = %174, %85
  br label %194

194:                                              ; preds = %193, %66
  br label %195

195:                                              ; preds = %194
  %196 = load i32, i32* %3, align 4
  %197 = add nsw i32 %196, 1
  store i32 %197, i32* %3, align 4
  br label %32

198:                                              ; preds = %32
  ret i32 0
}

declare dso_local i32 @__isoc99_scanf(i8*, ...) #1

; Function Attrs: nounwind readnone speculatable willreturn
declare double @llvm.fabs.f64(double) #2

declare dso_local i32 @printf(i8*, ...) #1

; Function Attrs: nounwind
declare dso_local double @sqrt(double) #3


!llvm.module.flags = !{!0}
!llvm.ident = !{!1}

!0 = !{i32 1, !"wchar_size", i32 4}
!1 = !{!"clang version 10.0.0-4ubuntu1 "}
