; ModuleID = 'source-C-CXX/26/2040.c'
source_filename = "source-C-CXX/26/2040.c"
target datalayout = "e-m:e-p270:32:32-p271:32:32-p272:64:64-i64:64-f80:128-n8:16:32:64-S128"
target triple = "x86_64-pc-linux-gnu"

@.str = private unnamed_addr constant [3 x i8] c"%d\00", align 1
@.str.1 = private unnamed_addr constant [10 x i8] c"%lf%lf%lf\00", align 1
@.str.2 = private unnamed_addr constant [13 x i8] c"x1=x2=%.5lf\0A\00", align 1
@.str.3 = private unnamed_addr constant [19 x i8] c"x1=%.5lf;x2=%.5lf\0A\00", align 1
@.str.4 = private unnamed_addr constant [17 x i8] c"x1=%.5lf+%.5lfi;\00", align 1
@.str.5 = private unnamed_addr constant [17 x i8] c"x2=%.5lf-%.5lfi\0A\00", align 1

; Function Attrs: nofree nounwind sspstrong uwtable
define dso_local i32 @main() local_unnamed_addr #0 {
  %1 = alloca i32, align 4
  %2 = alloca [100 x double], align 16
  %3 = alloca [100 x double], align 16
  %4 = alloca [100 x double], align 16
  %5 = bitcast i32* %1 to i8*
  call void @llvm.lifetime.start.p0i8(i64 4, i8* nonnull %5) #5
  %6 = bitcast [100 x double]* %2 to i8*
  call void @llvm.lifetime.start.p0i8(i64 800, i8* nonnull %6) #5
  %7 = bitcast [100 x double]* %3 to i8*
  call void @llvm.lifetime.start.p0i8(i64 800, i8* nonnull %7) #5
  %8 = bitcast [100 x double]* %4 to i8*
  call void @llvm.lifetime.start.p0i8(i64 800, i8* nonnull %8) #5
  %9 = call i32 (i8*, ...) @__isoc99_scanf(i8* getelementptr inbounds ([3 x i8], [3 x i8]* @.str, i64 0, i64 0), i32* nonnull %1)
  %10 = load i32, i32* %1, align 4, !tbaa !5
  %11 = icmp sgt i32 %10, 0
  br i1 %11, label %14, label %77

12:                                               ; preds = %14
  %13 = icmp sgt i32 %21, 0
  br i1 %13, label %24, label %77

14:                                               ; preds = %0, %14
  %15 = phi i64 [ %20, %14 ], [ 0, %0 ]
  %16 = getelementptr inbounds [100 x double], [100 x double]* %2, i64 0, i64 %15
  %17 = getelementptr inbounds [100 x double], [100 x double]* %3, i64 0, i64 %15
  %18 = getelementptr inbounds [100 x double], [100 x double]* %4, i64 0, i64 %15
  %19 = call i32 (i8*, ...) @__isoc99_scanf(i8* getelementptr inbounds ([10 x i8], [10 x i8]* @.str.1, i64 0, i64 0), double* nonnull %16, double* nonnull %17, double* nonnull %18)
  %20 = add nuw nsw i64 %15, 1
  %21 = load i32, i32* %1, align 4, !tbaa !5
  %22 = sext i32 %21 to i64
  %23 = icmp slt i64 %20, %22
  br i1 %23, label %14, label %12, !llvm.loop !9

24:                                               ; preds = %12, %72
  %25 = phi i64 [ %73, %72 ], [ 0, %12 ]
  %26 = getelementptr inbounds [100 x double], [100 x double]* %3, i64 0, i64 %25
  %27 = load double, double* %26, align 8, !tbaa !11
  %28 = fmul double %27, %27
  %29 = getelementptr inbounds [100 x double], [100 x double]* %2, i64 0, i64 %25
  %30 = load double, double* %29, align 8, !tbaa !11
  %31 = fmul double %30, 4.000000e+00
  %32 = getelementptr inbounds [100 x double], [100 x double]* %4, i64 0, i64 %25
  %33 = load double, double* %32, align 8, !tbaa !11
  %34 = fmul double %31, %33
  %35 = fsub double %28, %34
  %36 = call double @llvm.fabs.f64(double %35)
  %37 = fcmp ugt double %36, 0x3EB0C6F7A0B5ED8D
  br i1 %37, label %43, label %38

38:                                               ; preds = %24
  %39 = fneg double %27
  %40 = fmul double %30, 2.000000e+00
  %41 = fdiv double %39, %40
  %42 = call i32 (i8*, ...) @printf(i8* nonnull dereferenceable(1) getelementptr inbounds ([13 x i8], [13 x i8]* @.str.2, i64 0, i64 0), double %41)
  br label %72

43:                                               ; preds = %24
  %44 = fcmp ogt double %35, 0x3EB0C6F7A0B5ED8D
  br i1 %44, label %45, label %59

45:                                               ; preds = %43
  %46 = call double @sqrt(double %35) #5
  %47 = fsub double %46, %27
  %48 = load double, double* %29, align 8, !tbaa !11
  %49 = fmul double %48, 2.000000e+00
  %50 = fdiv double %47, %49
  %51 = load double, double* %26, align 8, !tbaa !11
  %52 = fneg double %51
  %53 = call double @sqrt(double %35) #5
  %54 = fsub double %52, %53
  %55 = load double, double* %29, align 8, !tbaa !11
  %56 = fmul double %55, 2.000000e+00
  %57 = fdiv double %54, %56
  %58 = call i32 (i8*, ...) @printf(i8* nonnull dereferenceable(1) getelementptr inbounds ([19 x i8], [19 x i8]* @.str.3, i64 0, i64 0), double %50, double %57)
  br label %72

59:                                               ; preds = %43
  %60 = fneg double %27
  %61 = fmul double %30, 2.000000e+00
  %62 = fdiv double %60, %61
  %63 = fneg double %35
  %64 = call double @sqrt(double %63) #5
  %65 = load double, double* %29, align 8, !tbaa !11
  %66 = fmul double %65, 2.000000e+00
  %67 = fdiv double %64, %66
  %68 = fcmp oeq double %62, 0.000000e+00
  %69 = select i1 %68, double 0.000000e+00, double %62
  %70 = call i32 (i8*, ...) @printf(i8* nonnull dereferenceable(1) getelementptr inbounds ([17 x i8], [17 x i8]* @.str.4, i64 0, i64 0), double %69, double %67)
  %71 = call i32 (i8*, ...) @printf(i8* nonnull dereferenceable(1) getelementptr inbounds ([17 x i8], [17 x i8]* @.str.5, i64 0, i64 0), double %69, double %67)
  br label %72

72:                                               ; preds = %38, %59, %45
  %73 = add nuw nsw i64 %25, 1
  %74 = load i32, i32* %1, align 4, !tbaa !5
  %75 = sext i32 %74 to i64
  %76 = icmp slt i64 %73, %75
  br i1 %76, label %24, label %77, !llvm.loop !13

77:                                               ; preds = %72, %0, %12
  call void @llvm.lifetime.end.p0i8(i64 800, i8* nonnull %8) #5
  call void @llvm.lifetime.end.p0i8(i64 800, i8* nonnull %7) #5
  call void @llvm.lifetime.end.p0i8(i64 800, i8* nonnull %6) #5
  call void @llvm.lifetime.end.p0i8(i64 4, i8* nonnull %5) #5
  ret i32 0
}

; Function Attrs: argmemonly mustprogress nofree nosync nounwind willreturn
declare void @llvm.lifetime.start.p0i8(i64 immarg, i8* nocapture) #1

; Function Attrs: nofree nounwind
declare noundef i32 @__isoc99_scanf(i8* nocapture noundef readonly, ...) local_unnamed_addr #2

; Function Attrs: mustprogress nofree nosync nounwind readnone speculatable willreturn
declare double @llvm.fabs.f64(double) #3

; Function Attrs: nofree nounwind
declare noundef i32 @printf(i8* nocapture noundef readonly, ...) local_unnamed_addr #2

; Function Attrs: mustprogress nofree nounwind willreturn
declare double @sqrt(double) local_unnamed_addr #4

; Function Attrs: argmemonly mustprogress nofree nosync nounwind willreturn
declare void @llvm.lifetime.end.p0i8(i64 immarg, i8* nocapture) #1


!llvm.module.flags = !{!0, !1, !2, !3}
!llvm.ident = !{!4}

!0 = !{i32 1, !"wchar_size", i32 4}
!1 = !{i32 7, !"PIC Level", i32 2}
!2 = !{i32 7, !"PIE Level", i32 2}
!3 = !{i32 7, !"uwtable", i32 1}
!4 = !{!"clang version 13.0.0"}
!5 = !{!6, !6, i64 0}
!6 = !{!"int", !7, i64 0}
!7 = !{!"omnipotent char", !8, i64 0}
!8 = !{!"Simple C/C++ TBAA"}
!9 = distinct !{!9, !10}
!10 = !{!"llvm.loop.mustprogress"}
!11 = !{!12, !12, i64 0}
!12 = !{!"double", !7, i64 0}
!13 = distinct !{!13, !10}
